; Function Attrs: nounwind uwtable
define void @Sbm_ManStop(ptr noundef captures(none) %0) local_unnamed_addr #0 {
  %2 = load ptr, ptr %0, align 8
  tail call void @sat_solver_delete(ptr noundef %2) #16
  %3 = getelementptr inbounds nuw i8, ptr %0, i64 8
  %4 = load ptr, ptr %3, align 8
  %5 = getelementptr inbounds nuw i8, ptr %4, i64 8
  %6 = load ptr, ptr %5, align 8
  %.not.i = icmp eq ptr %6, null
  br i1 %.not.i, label %Vec_IntFree.exit, label %7

7:                                                ; preds = %1
  tail call void @free(ptr noundef nonnull %6) #16
  br label %Vec_IntFree.exit

Vec_IntFree.exit:                                 ; preds = %1, %7
  tail call void @free(ptr noundef nonnull %4) #16
  %8 = getelementptr inbounds nuw i8, ptr %0, i64 32
  %9 = load ptr, ptr %8, align 8
  %10 = getelementptr inbounds nuw i8, ptr %9, i64 8
  %11 = load ptr, ptr %10, align 8
  %.not.i17 = icmp eq ptr %11, null
  br i1 %.not.i17, label %Vec_IntFree.exit18, label %12

12:                                               ; preds = %Vec_IntFree.exit
  tail call void @free(ptr noundef nonnull %11) #16
  br label %Vec_IntFree.exit18

Vec_IntFree.exit18:                               ; preds = %Vec_IntFree.exit, %12
  tail call void @free(ptr noundef nonnull %9) #16
  %13 = getelementptr inbounds nuw i8, ptr %0, i64 40
  %14 = load ptr, ptr %13, align 8
  %15 = load i32, ptr %14, align 8
  %16 = icmp sgt i32 %15, 0
  br i1 %16, label %.lr.ph.i.i, label %._crit_edge.i.i

.lr.ph.i.i:                                       ; preds = %Vec_IntFree.exit18
  %17 = getelementptr inbounds nuw i8, ptr %14, i64 8
  br label %18

18:                                               ; preds = %26, %.lr.ph.i.i
  %19 = phi i32 [ %15, %.lr.ph.i.i ], [ %27, %26 ]
  %indvars.iv.i.i = phi i64 [ 0, %.lr.ph.i.i ], [ %indvars.iv.next.i.i, %26 ]
  %20 = load ptr, ptr %17, align 8
  %21 = getelementptr inbounds nuw %struct.Vec_Int_t_, ptr %20, i64 %indvars.iv.i.i, i32 2
  %22 = load ptr, ptr %21, align 8
  %.not15.i.i = icmp eq ptr %22, null
  br i1 %.not15.i.i, label %26, label %23

23:                                               ; preds = %18
  tail call void @free(ptr noundef nonnull %22) #16
  %24 = load ptr, ptr %17, align 8
  %25 = getelementptr inbounds nuw %struct.Vec_Int_t_, ptr %24, i64 %indvars.iv.i.i, i32 2
  store ptr null, ptr %25, align 8
  %.pre.i.i = load i32, ptr %14, align 8
  br label %26

26:                                               ; preds = %23, %18
  %27 = phi i32 [ %.pre.i.i, %23 ], [ %19, %18 ]
  %indvars.iv.next.i.i = add nuw nsw i64 %indvars.iv.i.i, 1
  %28 = sext i32 %27 to i64
  %29 = icmp slt i64 %indvars.iv.next.i.i, %28
  br i1 %29, label %18, label %._crit_edge.i.i, !llvm.loop !20

._crit_edge.i.i:                                  ; preds = %26, %Vec_IntFree.exit18
  %30 = getelementptr inbounds nuw i8, ptr %14, i64 8
  %31 = load ptr, ptr %30, align 8
  %.not.i.i = icmp eq ptr %31, null
  br i1 %.not.i.i, label %Vec_WecFree.exit, label %32

32:                                               ; preds = %._crit_edge.i.i
  tail call void @free(ptr noundef nonnull %31) #16
  br label %Vec_WecFree.exit

Vec_WecFree.exit:                                 ; preds = %._crit_edge.i.i, %32
  tail call void @free(ptr noundef nonnull %14) #16
  %33 = getelementptr inbounds nuw i8, ptr %0, i64 48
  %34 = load ptr, ptr %33, align 8
  %35 = load i32, ptr %34, align 8
  %36 = icmp sgt i32 %35, 0
  br i1 %36, label %.lr.ph.i.i21, label %._crit_edge.i.i19

.lr.ph.i.i21:                                     ; preds = %Vec_WecFree.exit
  %37 = getelementptr inbounds nuw i8, ptr %34, i64 8
  br label %38

38:                                               ; preds = %46, %.lr.ph.i.i21
  %39 = phi i32 [ %35, %.lr.ph.i.i21 ], [ %47, %46 ]
  %indvars.iv.i.i22 = phi i64 [ 0, %.lr.ph.i.i21 ], [ %indvars.iv.next.i.i25, %46 ]
  %40 = load ptr, ptr %37, align 8
  %41 = getelementptr inbounds nuw %struct.Vec_Int_t_, ptr %40, i64 %indvars.iv.i.i22, i32 2
  %42 = load ptr, ptr %41, align 8
  %.not15.i.i23 = icmp eq ptr %42, null
  br i1 %.not15.i.i23, label %46, label %43

43:                                               ; preds = %38
  tail call void @free(ptr noundef nonnull %42) #16
  %44 = load ptr, ptr %37, align 8
  %45 = getelementptr inbounds nuw %struct.Vec_Int_t_, ptr %44, i64 %indvars.iv.i.i22, i32 2
  store ptr null, ptr %45, align 8
  %.pre.i.i24 = load i32, ptr %34, align 8
  br label %46

46:                                               ; preds = %43, %38
  %47 = phi i32 [ %.pre.i.i24, %43 ], [ %39, %38 ]
  %indvars.iv.next.i.i25 = add nuw nsw i64 %indvars.iv.i.i22, 1
  %48 = sext i32 %47 to i64
  %49 = icmp slt i64 %indvars.iv.next.i.i25, %48
  br i1 %49, label %38, label %._crit_edge.i.i19, !llvm.loop !20

._crit_edge.i.i19:                                ; preds = %46, %Vec_WecFree.exit
  %50 = getelementptr inbounds nuw i8, ptr %34, i64 8
  %51 = load ptr, ptr %50, align 8
  %.not.i.i20 = icmp eq ptr %51, null
  br i1 %.not.i.i20, label %Vec_WecFree.exit26, label %52

52:                                               ; preds = %._crit_edge.i.i19
  tail call void @free(ptr noundef nonnull %51) #16
  br label %Vec_WecFree.exit26

Vec_WecFree.exit26:                               ; preds = %._crit_edge.i.i19, %52
  tail call void @free(ptr noundef nonnull %34) #16
  %53 = getelementptr inbounds nuw i8, ptr %0, i64 56
  %54 = load ptr, ptr %53, align 8
  %55 = getelementptr inbounds nuw i8, ptr %54, i64 8
  %56 = load ptr, ptr %55, align 8
  %.not.i27 = icmp eq ptr %56, null
  br i1 %.not.i27, label %Vec_IntFree.exit28, label %57

57:                                               ; preds = %Vec_WecFree.exit26
  tail call void @free(ptr noundef nonnull %56) #16
  br label %Vec_IntFree.exit28

Vec_IntFree.exit28:                               ; preds = %Vec_WecFree.exit26, %57
  tail call void @free(ptr noundef nonnull %54) #16
  %58 = getelementptr inbounds nuw i8, ptr %0, i64 64
  %59 = load ptr, ptr %58, align 8
  %60 = getelementptr inbounds nuw i8, ptr %59, i64 8
  %61 = load ptr, ptr %60, align 8
  %.not.i29 = icmp eq ptr %61, null
  br i1 %.not.i29, label %Vec_IntFree.exit30, label %62

62:                                               ; preds = %Vec_IntFree.exit28
  tail call void @free(ptr noundef nonnull %61) #16
  br label %Vec_IntFree.exit30

Vec_IntFree.exit30:                               ; preds = %Vec_IntFree.exit28, %62
  tail call void @free(ptr noundef nonnull %59) #16
  %63 = getelementptr inbounds nuw i8, ptr %0, i64 72
  %64 = load ptr, ptr %63, align 8
  %65 = getelementptr inbounds nuw i8, ptr %64, i64 8
  %66 = load ptr, ptr %65, align 8
  %.not.i31 = icmp eq ptr %66, null
  br i1 %.not.i31, label %Vec_WrdFree.exit, label %67

67:                                               ; preds = %Vec_IntFree.exit30
  tail call void @free(ptr noundef nonnull %66) #16
  br label %Vec_WrdFree.exit

Vec_WrdFree.exit:                                 ; preds = %Vec_IntFree.exit30, %67
  tail call void @free(ptr noundef nonnull %64) #16
  %68 = getelementptr inbounds nuw i8, ptr %0, i64 80
  %69 = load ptr, ptr %68, align 8
  %70 = getelementptr inbounds nuw i8, ptr %69, i64 8
  %71 = load ptr, ptr %70, align 8
  %.not.i32 = icmp eq ptr %71, null
  br i1 %.not.i32, label %Vec_IntFree.exit33, label %72

72:                                               ; preds = %Vec_WrdFree.exit
  tail call void @free(ptr noundef nonnull %71) #16
  br label %Vec_IntFree.exit33

Vec_IntFree.exit33:                               ; preds = %Vec_WrdFree.exit, %72
  tail call void @free(ptr noundef nonnull %69) #16
  %73 = getelementptr inbounds nuw i8, ptr %0, i64 88
  %74 = load ptr, ptr %73, align 8
  %75 = getelementptr inbounds nuw i8, ptr %74, i64 8
  %76 = load ptr, ptr %75, align 8
  %.not.i34 = icmp eq ptr %76, null
  br i1 %.not.i34, label %Vec_IntFree.exit35, label %77

77:                                               ; preds = %Vec_IntFree.exit33
  tail call void @free(ptr noundef nonnull %76) #16
  br label %Vec_IntFree.exit35

Vec_IntFree.exit35:                               ; preds = %Vec_IntFree.exit33, %77
  tail call void @free(ptr noundef nonnull %74) #16
  %78 = getelementptr inbounds nuw i8, ptr %0, i64 96
  %79 = load ptr, ptr %78, align 8
  %80 = getelementptr inbounds nuw i8, ptr %79, i64 8
  %81 = load ptr, ptr %80, align 8
  %.not.i36 = icmp eq ptr %81, null
  br i1 %.not.i36, label %Vec_IntFree.exit37, label %82

82:                                               ; preds = %Vec_IntFree.exit35
  tail call void @free(ptr noundef nonnull %81) #16
  br label %Vec_IntFree.exit37

Vec_IntFree.exit37:                               ; preds = %Vec_IntFree.exit35, %82
  tail call void @free(ptr noundef nonnull %79) #16
  %83 = getelementptr inbounds nuw i8, ptr %0, i64 104
  %84 = load ptr, ptr %83, align 8
  %85 = getelementptr inbounds nuw i8, ptr %84, i64 8
  %86 = load ptr, ptr %85, align 8
  %.not.i38 = icmp eq ptr %86, null
  br i1 %.not.i38, label %Vec_IntFree.exit39, label %87

87:                                               ; preds = %Vec_IntFree.exit37
  tail call void @free(ptr noundef nonnull %86) #16
  br label %Vec_IntFree.exit39

Vec_IntFree.exit39:                               ; preds = %Vec_IntFree.exit37, %87
  tail call void @free(ptr noundef nonnull %84) #16
  %88 = getelementptr inbounds nuw i8, ptr %0, i64 112
  %89 = load ptr, ptr %88, align 8
  %90 = getelementptr inbounds nuw i8, ptr %89, i64 8
  %91 = load ptr, ptr %90, align 8
  %.not.i40 = icmp eq ptr %91, null
  br i1 %.not.i40, label %Vec_IntFree.exit41, label %92

92:                                               ; preds = %Vec_IntFree.exit39
  tail call void @free(ptr noundef nonnull %91) #16
  br label %Vec_IntFree.exit41

Vec_IntFree.exit41:                               ; preds = %Vec_IntFree.exit39, %92
  tail call void @free(ptr noundef nonnull %89) #16
  %93 = getelementptr inbounds nuw i8, ptr %0, i64 120
  %94 = load ptr, ptr %93, align 8
  %95 = getelementptr inbounds nuw i8, ptr %94, i64 8
  %96 = load ptr, ptr %95, align 8
  %.not.i42 = icmp eq ptr %96, null
  br i1 %.not.i42, label %Vec_IntFree.exit43, label %97

97:                                               ; preds = %Vec_IntFree.exit41
  tail call void @free(ptr noundef nonnull %96) #16
  br label %Vec_IntFree.exit43

Vec_IntFree.exit43:                               ; preds = %Vec_IntFree.exit41, %97
  tail call void @free(ptr noundef nonnull %94) #16
  %98 = getelementptr inbounds nuw i8, ptr %0, i64 128
  %99 = load ptr, ptr %98, align 8
  %100 = getelementptr inbounds nuw i8, ptr %99, i64 8
  %101 = load ptr, ptr %100, align 8
  %.not.i44 = icmp eq ptr %101, null
  br i1 %.not.i44, label %Vec_IntFree.exit45, label %102

102:                                              ; preds = %Vec_IntFree.exit43
  tail call void @free(ptr noundef nonnull %101) #16
  br label %Vec_IntFree.exit45

Vec_IntFree.exit45:                               ; preds = %Vec_IntFree.exit43, %102
  tail call void @free(ptr noundef nonnull %99) #16
  tail call void @free(ptr noundef nonnull %0) #16
  ret void
}